; Function Attrs: nounwind sspstrong uwtable
define dso_local void @job_start(ptr noundef %0) local_unnamed_addr #0 {
  %2 = tail call zeroext i1 @qemu_in_main_thread() #15
  br i1 %2, label %4, label %3

3:                                                ; preds = %1
  tail call void @__assert_fail(ptr noundef nonnull @.str.6, ptr noundef nonnull @.str, i32 noundef 1117, ptr noundef nonnull @__PRETTY_FUNCTION__.job_start) #17
  unreachable

4:                                                ; preds = %1
  %5 = load atomic i64, ptr @qemu_mutex_lock_func monotonic, align 8
  %6 = inttoptr i64 %5 to ptr
  tail call void %6(ptr noundef nonnull @job_mutex, ptr noundef nonnull @.str.29, i32 noundef 56) #15
  %.not14 = icmp eq ptr %0, null
  %7 = getelementptr i8, ptr %0, i64 16
  %8 = getelementptr inbounds nuw i8, ptr %0, i64 181
  %9 = getelementptr inbounds nuw i8, ptr %0, i64 8
  br i1 %.not14, label %.split22, label %.split.split.us

.split.split.us:                                  ; preds = %4
  %.val17.us = load ptr, ptr %7, align 8
  %.not20.us = icmp eq ptr %.val17.us, null
  br i1 %.not20.us, label %10, label %.split22

10:                                               ; preds = %.split.split.us
  %11 = load i8, ptr %8, align 1, !range !4, !noundef !5
  %12 = trunc nuw i8 %11 to i1
  br i1 %12, label %13, label %.split22

13:                                               ; preds = %10
  %14 = load ptr, ptr %9, align 8
  %.not15.us = icmp eq ptr %14, null
  br i1 %.not15.us, label %.split22, label %15

15:                                               ; preds = %13
  %16 = getelementptr inbounds nuw i8, ptr %14, i64 16
  %17 = tail call ptr @llvm.ptr.annotation.p0.p0(ptr nonnull %16, ptr nonnull @.str.24, ptr nonnull @.str.25, i32 216, ptr null)
  %18 = load ptr, ptr %17, align 8
  %.not16.us = icmp eq ptr %18, null
  br i1 %.not16.us, label %.split22, label %qemu_lockable_auto_unlock.exit.us

qemu_lockable_auto_unlock.exit.us:                ; preds = %15
  %19 = getelementptr inbounds nuw i8, ptr %0, i64 180
  %20 = getelementptr inbounds nuw i8, ptr %0, i64 176
  %21 = tail call ptr @qemu_coroutine_create(ptr noundef nonnull @job_co_entry, ptr noundef nonnull %0) #15
  store ptr %21, ptr %7, align 8
  %22 = load i32, ptr %20, align 8
  %23 = add i32 %22, -1
  store i32 %23, ptr %20, align 8
  store i8 1, ptr %19, align 4
  store i8 0, ptr %8, align 1
  tail call fastcc void @job_state_transition_locked(ptr noundef nonnull %0, i32 noundef 2)
  tail call void @qemu_mutex_unlock_impl(ptr noundef nonnull @job_mutex, ptr noundef nonnull @.str.29, i32 noundef 56) #15
  %24 = getelementptr inbounds nuw i8, ptr %0, i64 112
  %25 = load ptr, ptr %24, align 8
  %26 = load ptr, ptr %7, align 8
  tail call void @aio_co_enter(ptr noundef %25, ptr noundef %26) #15
  ret void

.split22:                                         ; preds = %15, %13, %10, %.split.split.us, %4
  tail call void @__assert_fail(ptr noundef nonnull @.str.26, ptr noundef nonnull @.str, i32 noundef 1121, ptr noundef nonnull @__PRETTY_FUNCTION__.job_start) #17
  unreachable
}